target datalayout = "e-m:e-p270:32:32-p271:32:32-p272:64:64-i64:64-i128:128-f80:128-n8:16:32:64-S128"
target triple = "x86_64-pc-linux-gnu"

%class.GrowableArrayView = type { %class.GrowableArrayBase, ptr }
%class.GrowableArrayBase = type { i32, i32 }
%class.CodeHeap = type { %class.VirtualSpace, %class.VirtualSpace, i64, i64, i64, i32, i64, ptr, ptr, i64, i32, i64, ptr, i32, i32, i32, i32, i32, i32 }
%class.VirtualSpace = type { ptr, ptr, ptr, ptr, i8, i8, ptr, ptr, ptr, ptr, ptr, ptr, i64, i64, i64 }
%class.GrowableArrayIterator = type <{ ptr, i32, [4 x i8] }>

@_ZN9CodeCache6_heapsE = hidden global ptr null, align 8

; Function Attrs: mustprogress nounwind uwtable
define linkonce_odr hidden noundef nonnull align 8 dereferenceable(8) ptr @_ZNK17GrowableArrayViewIP8CodeHeapE2atEi(ptr noundef nonnull align 8 dereferenceable(16) %0, i32 noundef %1) #1 comdat align 2 {
  %3 = alloca ptr, align 8
  %4 = alloca i32, align 4
  store ptr %0, ptr %3, align 8
  store i32 %1, ptr %4, align 4
  %5 = load ptr, ptr %3, align 8
  %6 = getelementptr inbounds %class.GrowableArrayView, ptr %5, i32 0, i32 1
  %7 = load ptr, ptr %6, align 8
  %8 = load i32, ptr %4, align 4
  %9 = sext i32 %8 to i64
  %10 = getelementptr inbounds ptr, ptr %7, i64 %9
  ret ptr %10
}

; Function Attrs: mustprogress nounwind uwtable
define linkonce_odr hidden noundef i32 @_ZNK17GrowableArrayBase6lengthEv(ptr noundef nonnull align 4 dereferenceable(8) %0) #1 comdat align 2 {
  %2 = alloca ptr, align 8
  store ptr %0, ptr %2, align 8
  %3 = load ptr, ptr %2, align 8
  %4 = getelementptr inbounds %class.GrowableArrayBase, ptr %3, i32 0, i32 0
  %5 = load i32, ptr %4, align 4
  ret i32 %5
}

; Function Attrs: mustprogress nounwind uwtable
define linkonce_odr hidden void @_ZN21GrowableArrayIteratorIP8CodeHeapEC2EPK17GrowableArrayViewIS1_Ei(ptr noundef nonnull align 8 dereferenceable(12) %0, ptr noundef %1, i32 noundef %2) unnamed_addr #1 comdat align 2 {
  %4 = alloca ptr, align 8
  %5 = alloca ptr, align 8
  %6 = alloca i32, align 4
  store ptr %0, ptr %4, align 8
  store ptr %1, ptr %5, align 8
  store i32 %2, ptr %6, align 4
  %7 = load ptr, ptr %4, align 8
  %8 = getelementptr inbounds %class.GrowableArrayIterator, ptr %7, i32 0, i32 0
  %9 = load ptr, ptr %5, align 8
  store ptr %9, ptr %8, align 8
  %10 = getelementptr inbounds %class.GrowableArrayIterator, ptr %7, i32 0, i32 1
  %11 = load i32, ptr %6, align 4
  store i32 %11, ptr %10, align 8
  ret void
}

; Function Attrs: mustprogress nounwind uwtable
define linkonce_odr hidden noundef ptr @_ZNK12VirtualSpace13high_boundaryEv(ptr noundef nonnull align 8 dereferenceable(112) %0) #1 comdat align 2 {
  %2 = alloca ptr, align 8
  store ptr %0, ptr %2, align 8
  %3 = load ptr, ptr %2, align 8
  %4 = getelementptr inbounds %class.VirtualSpace, ptr %3, i32 0, i32 1
  %5 = load ptr, ptr %4, align 8
  ret ptr %5
}

; Function Attrs: mustprogress nounwind uwtable
define linkonce_odr hidden noundef nonnull align 8 dereferenceable(12) ptr @_ZN21GrowableArrayIteratorIP8CodeHeapEppEv(ptr noundef nonnull align 8 dereferenceable(12) %0) #1 comdat align 2 {
  %2 = alloca ptr, align 8
  store ptr %0, ptr %2, align 8
  %3 = load ptr, ptr %2, align 8
  %4 = getelementptr inbounds %class.GrowableArrayIterator, ptr %3, i32 0, i32 1
  %5 = load i32, ptr %4, align 8
  %6 = add nsw i32 %5, 1
  store i32 %6, ptr %4, align 8
  ret ptr %3
}

; Function Attrs: mustprogress nounwind uwtable
define linkonce_odr hidden noundef zeroext i1 @_ZNK8CodeHeap7acceptsE12CodeBlobType(ptr noundef nonnull align 8 dereferenceable(336) %0, i32 noundef %1) #1 comdat align 2 {
  %3 = alloca ptr, align 8
  %4 = alloca i32, align 4
  store ptr %0, ptr %3, align 8
  store i32 %1, ptr %4, align 4
  %5 = load ptr, ptr %3, align 8
  %6 = getelementptr inbounds %class.CodeHeap, ptr %5, i32 0, i32 13
  %7 = load i32, ptr %6, align 8
  %8 = icmp eq i32 %7, 3
  br i1 %8, label %14, label %9

9:                                                ; preds = %2
  %10 = getelementptr inbounds %class.CodeHeap, ptr %5, i32 0, i32 13
  %11 = load i32, ptr %10, align 8
  %12 = load i32, ptr %4, align 4
  %13 = icmp eq i32 %11, %12
  br label %14

14:                                               ; preds = %9, %2
  %15 = phi i1 [ true, %2 ], [ %13, %9 ]
  ret i1 %15
}

; Function Attrs: mustprogress nounwind uwtable
define linkonce_odr hidden noundef ptr @_ZN21GrowableArrayIteratorIP8CodeHeapEdeEv(ptr noundef nonnull align 8 dereferenceable(12) %0) #1 comdat align 2 {
  %2 = alloca ptr, align 8
  store ptr %0, ptr %2, align 8
  %3 = load ptr, ptr %2, align 8
  %4 = getelementptr inbounds %class.GrowableArrayIterator, ptr %3, i32 0, i32 0
  %5 = load ptr, ptr %4, align 8
  %6 = getelementptr inbounds %class.GrowableArrayIterator, ptr %3, i32 0, i32 1
  %7 = load i32, ptr %6, align 8
  %8 = call noundef nonnull align 8 dereferenceable(8) ptr @_ZNK17GrowableArrayViewIP8CodeHeapE2atEi(ptr noundef nonnull align 8 dereferenceable(16) %5, i32 noundef %7)
  %9 = load ptr, ptr %8, align 8
  ret ptr %9
}

; Function Attrs: mustprogress nounwind uwtable
define linkonce_odr hidden noundef zeroext i1 @_ZN21GrowableArrayIteratorIP8CodeHeapEneERKS2_(ptr noundef nonnull align 8 dereferenceable(12) %0, ptr noundef nonnull align 8 dereferenceable(12) %1) #1 comdat align 2 {
  %3 = alloca ptr, align 8
  %4 = alloca ptr, align 8
  store ptr %0, ptr %3, align 8
  store ptr %1, ptr %4, align 8
  %5 = load ptr, ptr %3, align 8
  %6 = getelementptr inbounds %class.GrowableArrayIterator, ptr %5, i32 0, i32 1
  %7 = load i32, ptr %6, align 8
  %8 = load ptr, ptr %4, align 8
  %9 = getelementptr inbounds %class.GrowableArrayIterator, ptr %8, i32 0, i32 1
  %10 = load i32, ptr %9, align 8
  %11 = icmp ne i32 %7, %10
  ret i1 %11
}

; Function Attrs: mustprogress nounwind uwtable
define linkonce_odr hidden { ptr, i32 } @_ZNK17GrowableArrayViewIP8CodeHeapE3endEv(ptr noundef nonnull align 8 dereferenceable(16) %0) #1 comdat align 2 {
  %2 = alloca %class.GrowableArrayIterator, align 8
  %3 = alloca ptr, align 8
  store ptr %0, ptr %3, align 8
  %4 = load ptr, ptr %3, align 8
  %5 = call noundef i32 @_ZNK17GrowableArrayBase6lengthEv(ptr noundef nonnull align 4 dereferenceable(8) %4)
  call void @_ZN21GrowableArrayIteratorIP8CodeHeapEC2EPK17GrowableArrayViewIS1_Ei(ptr noundef nonnull align 8 dereferenceable(12) %2, ptr noundef %4, i32 noundef %5)
  %6 = load { ptr, i32 }, ptr %2, align 8
  ret { ptr, i32 } %6
}

; Function Attrs: mustprogress nounwind uwtable
define linkonce_odr hidden { ptr, i32 } @_ZNK17GrowableArrayViewIP8CodeHeapE5beginEv(ptr noundef nonnull align 8 dereferenceable(16) %0) #1 comdat align 2 {
  %2 = alloca %class.GrowableArrayIterator, align 8
  %3 = alloca ptr, align 8
  store ptr %0, ptr %3, align 8
  %4 = load ptr, ptr %3, align 8
  call void @_ZN21GrowableArrayIteratorIP8CodeHeapEC2EPK17GrowableArrayViewIS1_Ei(ptr noundef nonnull align 8 dereferenceable(12) %2, ptr noundef %4, i32 noundef 0)
  %5 = load { ptr, i32 }, ptr %2, align 8
  ret { ptr, i32 } %5
}

; Function Attrs: mustprogress nounwind uwtable
define linkonce_odr hidden noundef ptr @_ZNK8CodeHeap13high_boundaryEv(ptr noundef nonnull align 8 dereferenceable(336) %0) #1 comdat align 2 {
  %2 = alloca ptr, align 8
  store ptr %0, ptr %2, align 8
  %3 = load ptr, ptr %2, align 8
  %4 = getelementptr inbounds %class.CodeHeap, ptr %3, i32 0, i32 0
  %5 = call noundef ptr @_ZNK12VirtualSpace13high_boundaryEv(ptr noundef nonnull align 8 dereferenceable(112) %4)
  ret ptr %5
}

; Function Attrs: mustprogress nounwind uwtable
define hidden noundef ptr @_ZN9CodeCache13get_code_heapE12CodeBlobType(i32 noundef %0) #1 align 2 {
  %2 = alloca ptr, align 8
  %3 = alloca i32, align 4
  %4 = alloca %class.GrowableArrayIterator, align 8
  %5 = alloca %class.GrowableArrayIterator, align 8
  store i32 %0, ptr %3, align 4
  %6 = load ptr, ptr @_ZN9CodeCache6_heapsE, align 8
  %7 = call { ptr, i32 } @_ZNK17GrowableArrayViewIP8CodeHeapE5beginEv(ptr noundef nonnull align 8 dereferenceable(16) %6)
  %8 = getelementptr inbounds { ptr, i32 }, ptr %4, i32 0, i32 0
  %9 = extractvalue { ptr, i32 } %7, 0
  store ptr %9, ptr %8, align 8
  %10 = getelementptr inbounds { ptr, i32 }, ptr %4, i32 0, i32 1
  %11 = extractvalue { ptr, i32 } %7, 1
  store i32 %11, ptr %10, align 8
  br label %12

12:                                               ; preds = %27, %1
  %13 = load ptr, ptr @_ZN9CodeCache6_heapsE, align 8
  %14 = call { ptr, i32 } @_ZNK17GrowableArrayViewIP8CodeHeapE3endEv(ptr noundef nonnull align 8 dereferenceable(16) %13)
  %15 = getelementptr inbounds { ptr, i32 }, ptr %5, i32 0, i32 0
  %16 = extractvalue { ptr, i32 } %14, 0
  store ptr %16, ptr %15, align 8
  %17 = getelementptr inbounds { ptr, i32 }, ptr %5, i32 0, i32 1
  %18 = extractvalue { ptr, i32 } %14, 1
  store i32 %18, ptr %17, align 8
  %19 = call noundef zeroext i1 @_ZN21GrowableArrayIteratorIP8CodeHeapEneERKS2_(ptr noundef nonnull align 8 dereferenceable(12) %4, ptr noundef nonnull align 8 dereferenceable(12) %5)
  br i1 %19, label %20, label %29

20:                                               ; preds = %12
  %21 = call noundef ptr @_ZN21GrowableArrayIteratorIP8CodeHeapEdeEv(ptr noundef nonnull align 8 dereferenceable(12) %4)
  %22 = load i32, ptr %3, align 4
  %23 = call noundef zeroext i1 @_ZNK8CodeHeap7acceptsE12CodeBlobType(ptr noundef nonnull align 8 dereferenceable(336) %21, i32 noundef %22)
  br i1 %23, label %24, label %26

24:                                               ; preds = %20
  %25 = call noundef ptr @_ZN21GrowableArrayIteratorIP8CodeHeapEdeEv(ptr noundef nonnull align 8 dereferenceable(12) %4)
  store ptr %25, ptr %2, align 8
  br label %30

26:                                               ; preds = %20
  br label %27

27:                                               ; preds = %26
  %28 = call noundef nonnull align 8 dereferenceable(12) ptr @_ZN21GrowableArrayIteratorIP8CodeHeapEppEv(ptr noundef nonnull align 8 dereferenceable(12) %4)
  br label %12, !llvm.loop !9

29:                                               ; preds = %12
  store ptr null, ptr %2, align 8
  br label %30

30:                                               ; preds = %29, %24
  %31 = load ptr, ptr %2, align 8
  ret ptr %31
}

; Function Attrs: mustprogress nounwind uwtable
define hidden noundef ptr @_ZN9CodeCache10high_boundE12CodeBlobType(i32 noundef %0) #1 align 2 {
  %2 = alloca i32, align 4
  %3 = alloca ptr, align 8
  store i32 %0, ptr %2, align 4
  %4 = load i32, ptr %2, align 4
  %5 = call noundef ptr @_ZN9CodeCache13get_code_heapE12CodeBlobType(i32 noundef %4)
  store ptr %5, ptr %3, align 8
  %6 = load ptr, ptr %3, align 8
  %7 = icmp ne ptr %6, null
  br i1 %7, label %8, label %11

8:                                                ; preds = %1
  %9 = load ptr, ptr %3, align 8
  %10 = call noundef ptr @_ZNK8CodeHeap13high_boundaryEv(ptr noundef nonnull align 8 dereferenceable(336) %9)
  br label %12

11:                                               ; preds = %1
  br label %12

12:                                               ; preds = %11, %8
  %13 = phi ptr [ %10, %8 ], [ null, %11 ]
  ret ptr %13
}